; Function Attrs: mustprogress uwtable
define dso_local noundef zeroext i1 @_ZN4base15DictionaryValue6RemoveENS_16BasicStringPieceINSt7__cxx1112basic_stringIcSt11char_traitsIcESaIcEEEEEPSt10unique_ptrINS_5ValueESt14default_deleteISA_EE(ptr noundef nonnull align 8 dereferenceable(64) %this, ptr %path.coerce0, i64 %path.coerce1, ptr noundef %out_value) unnamed_addr #3 align 2 personality ptr @__gxx_personality_v0 {
entry:
  %value.i.i = alloca ptr, align 8
  %path = alloca %"class.base::BasicStringPiece", align 8
  %current_path = alloca %"class.std::__cxx11::basic_string", align 8
  %agg.tmp = alloca %"class.base::BasicStringPiece", align 8
  %ref.tmp = alloca %"class.std::__cxx11::basic_string", align 8
  %agg.tmp10 = alloca %"class.base::BasicStringPiece", align 8
  store ptr %path.coerce0, ptr %path, align 8
  %0 = getelementptr inbounds i8, ptr %path, i64 8
  store i64 %path.coerce1, ptr %0, align 8
  call void @_ZNK4base16BasicStringPieceINSt7__cxx1112basic_stringIcSt11char_traitsIcESaIcEEEE9as_stringEv(ptr nonnull sret(%"class.std::__cxx11::basic_string") align 8 %current_path, ptr noundef nonnull align 8 dereferenceable(16) %path)
  %call = call noundef i64 @_ZNKSt7__cxx1112basic_stringIcSt11char_traitsIcESaIcEE5rfindEcm(ptr noundef nonnull align 8 dereferenceable(32) %current_path, i8 noundef signext 46, i64 noundef -1) #26
  %cmp.not = icmp eq i64 %call, -1
  br i1 %cmp.not, label %if.end9, label %if.then

if.then:                                          ; preds = %entry
  invoke void @_ZNKSt7__cxx1112basic_stringIcSt11char_traitsIcESaIcEE6substrEmm(ptr nonnull sret(%"class.std::__cxx11::basic_string") align 8 %ref.tmp, ptr noundef nonnull align 8 dereferenceable(32) %current_path, i64 noundef 0, i64 noundef %call)
          to label %invoke.cont unwind label %lpad

invoke.cont:                                      ; preds = %if.then
  invoke void @_ZN4base16BasicStringPieceINSt7__cxx1112basic_stringIcSt11char_traitsIcESaIcEEEEC1ERKS6_(ptr noundef nonnull align 8 dereferenceable(16) %agg.tmp, ptr noundef nonnull align 8 dereferenceable(32) %ref.tmp)
          to label %invoke.cont3 unwind label %lpad2

invoke.cont3:                                     ; preds = %invoke.cont
  %1 = load ptr, ptr %agg.tmp, align 8
  %2 = getelementptr inbounds i8, ptr %agg.tmp, i64 8
  %3 = load i64, ptr %2, align 8
  call void @llvm.lifetime.start.p0(i64 8, ptr nonnull %value.i.i)
  %call.i.i4 = invoke noundef zeroext i1 @_ZNK4base15DictionaryValue3GetENS_16BasicStringPieceINSt7__cxx1112basic_stringIcSt11char_traitsIcESaIcEEEEEPPKNS_5ValueE(ptr noundef nonnull align 8 dereferenceable(64) %this, ptr %1, i64 %3, ptr noundef nonnull %value.i.i)
          to label %call.i.i.noexc unwind label %lpad2

call.i.i.noexc:                                   ; preds = %invoke.cont3
  br i1 %call.i.i4, label %lor.lhs.false.i.i, label %invoke.cont4.thread

lor.lhs.false.i.i:                                ; preds = %call.i.i.noexc
  %4 = load ptr, ptr %value.i.i, align 8
  %type_.i.i.i = getelementptr inbounds i8, ptr %4, i64 8
  %5 = load i32, ptr %type_.i.i.i, align 8
  %cmp.i.i.i = icmp eq i32 %5, 6
  br i1 %cmp.i.i.i, label %if.end, label %invoke.cont4.thread

invoke.cont4.thread:                              ; preds = %lor.lhs.false.i.i, %call.i.i.noexc
  call void @llvm.lifetime.end.p0(i64 8, ptr nonnull %value.i.i)
  call void @_ZNSt7__cxx1112basic_stringIcSt11char_traitsIcESaIcEED1Ev(ptr noundef nonnull align 8 dereferenceable(32) %ref.tmp) #26
  br label %cleanup

lpad:                                             ; preds = %invoke.cont11, %if.end9, %if.end, %if.then
  %6 = landingpad { ptr, i32 }
          cleanup
  br label %ehcleanup

lpad2:                                            ; preds = %invoke.cont3, %invoke.cont
  %7 = landingpad { ptr, i32 }
          cleanup
  call void @_ZNSt7__cxx1112basic_stringIcSt11char_traitsIcESaIcEED1Ev(ptr noundef nonnull align 8 dereferenceable(32) %ref.tmp) #26
  br label %ehcleanup

if.end:                                           ; preds = %lor.lhs.false.i.i
  call void @llvm.lifetime.end.p0(i64 8, ptr nonnull %value.i.i)
  call void @_ZNSt7__cxx1112basic_stringIcSt11char_traitsIcESaIcEED1Ev(ptr noundef nonnull align 8 dereferenceable(32) %ref.tmp) #26
  %add = add nuw i64 %call, 1
  %call8 = invoke noundef nonnull align 8 dereferenceable(32) ptr @_ZNSt7__cxx1112basic_stringIcSt11char_traitsIcESaIcEE5eraseEmm(ptr noundef nonnull align 8 dereferenceable(32) %current_path, i64 noundef 0, i64 noundef %add)
          to label %if.end9 unwind label %lpad

if.end9:                                          ; preds = %if.end, %entry
  %current_dictionary.1 = phi ptr [ %this, %entry ], [ %4, %if.end ]
  invoke void @_ZN4base16BasicStringPieceINSt7__cxx1112basic_stringIcSt11char_traitsIcESaIcEEEEC1ERKS6_(ptr noundef nonnull align 8 dereferenceable(16) %agg.tmp10, ptr noundef nonnull align 8 dereferenceable(32) %current_path)
          to label %invoke.cont11 unwind label %lpad

invoke.cont11:                                    ; preds = %if.end9
  %8 = load ptr, ptr %agg.tmp10, align 8
  %9 = getelementptr inbounds i8, ptr %agg.tmp10, i64 8
  %10 = load i64, ptr %9, align 8
  %vtable = load ptr, ptr %current_dictionary.1, align 8
  %vfn = getelementptr inbounds i8, ptr %vtable, i64 128
  %11 = load ptr, ptr %vfn, align 8
  %call13 = invoke noundef zeroext i1 %11(ptr noundef nonnull align 8 dereferenceable(64) %current_dictionary.1, ptr %8, i64 %10, ptr noundef %out_value)
          to label %cleanup unwind label %lpad

cleanup:                                          ; preds = %invoke.cont4.thread, %invoke.cont11
  %retval.0 = phi i1 [ %call13, %invoke.cont11 ], [ false, %invoke.cont4.thread ]
  call void @_ZNSt7__cxx1112basic_stringIcSt11char_traitsIcESaIcEED1Ev(ptr noundef nonnull align 8 dereferenceable(32) %current_path) #26
  ret i1 %retval.0

ehcleanup:                                        ; preds = %lpad2, %lpad
  %.pn = phi { ptr, i32 } [ %6, %lpad ], [ %7, %lpad2 ]
  call void @_ZNSt7__cxx1112basic_stringIcSt11char_traitsIcESaIcEED1Ev(ptr noundef nonnull align 8 dereferenceable(32) %current_path) #26
  resume { ptr, i32 } %.pn
}